target datalayout = "e-m:e-p270:32:32-p271:32:32-p272:64:64-i64:64-i128:128-f80:128-n8:16:32:64-S128"
target triple = "x86_64-pc-linux-gnu"

%struct.H5C_cache_entry_t = type { ptr, i64, i64, ptr, i8, ptr, i8, i8, i8, i8, i32, i8, i8, i8, i8, i8, i32, ptr, i32, i32, i32, i32, i32, i8, i8, ptr, ptr, ptr, ptr, ptr, ptr, i8, i32, i8, i64, ptr, i64, i64, i32, i8, i32, i32, i8, ptr, ptr, ptr }
%struct.H5C_class_t = type { i32, ptr, i32, i32, ptr, ptr, ptr, ptr, ptr, ptr, ptr, ptr, ptr, ptr }

@H5C_init_g = external global i8, align 1
@H5_libterm_g = external global i8, align 1
@.str = private unnamed_addr constant [102 x i8] c"generated/home/dtcxzyw/WorkSpace/Projects/compilers/llvm-opt-benchmark/bench/hdf5/hdf5/src/H5Centry.c\00", align 1
@H5E_CACHE_g = external global i64, align 8
@H5E_CANTNOTIFY_g = external global i64, align 8
@.str.26 = private unnamed_addr constant [51 x i8] c"Can't propagate serialization status to fd parents\00", align 1
@__func__.H5C_mark_entry_unserialized = private unnamed_addr constant [28 x i8] c"H5C_mark_entry_unserialized\00", align 1
@H5E_CANTSET_g = external global i64, align 8
@H5E_CANTMARKUNSERIALIZED_g = external global i64, align 8
@.str.33 = private unnamed_addr constant [55 x i8] c"Entry to unserialize is neither pinned nor protected??\00", align 1
@.str.64 = private unnamed_addr constant [60 x i8] c"can't notify parent about child entry serialized flag reset\00", align 1
@__func__.H5C__mark_flush_dep_unserialized = private unnamed_addr constant [33 x i8] c"H5C__mark_flush_dep_unserialized\00", align 1

; Function Attrs: nounwind uwtable
define internal i32 @H5C__mark_flush_dep_unserialized(ptr noundef %0) #0 {
  %2 = alloca ptr, align 8
  %3 = alloca i32, align 4
  %4 = alloca i32, align 4
  %5 = alloca i8, align 1
  store ptr %0, ptr %2, align 8, !tbaa !8
  call void @llvm.lifetime.start.p0(i64 4, ptr %3) #7
  call void @llvm.lifetime.start.p0(i64 4, ptr %4) #7
  store i32 0, ptr %4, align 4, !tbaa !10
  call void @llvm.lifetime.start.p0(i64 1, ptr %5) #7
  store i8 0, ptr %5, align 1, !tbaa !12
  %6 = load i8, ptr @H5C_init_g, align 1, !tbaa !12, !range !16, !noundef !17
  %7 = trunc i8 %6 to i1
  br i1 %7, label %12, label %8

8:                                                ; preds = %1
  %9 = load i8, ptr @H5_libterm_g, align 1, !tbaa !12, !range !16, !noundef !17
  %10 = trunc i8 %9 to i1
  %11 = xor i1 %10, true
  br label %12

12:                                               ; preds = %8, %1
  %13 = phi i1 [ true, %1 ], [ %11, %8 ]
  %14 = xor i1 %13, true
  %15 = xor i1 %14, true
  %16 = zext i1 %15 to i32
  %17 = sext i32 %16 to i64
  %18 = call i64 @llvm.expect.i64(i64 %17, i64 1)
  %19 = icmp ne i64 %18, 0
  br i1 %19, label %20, label %96

20:                                               ; preds = %12
  store i32 0, ptr %3, align 4, !tbaa !10
  br label %21

21:                                               ; preds = %91, %20
  %22 = load i32, ptr %3, align 4, !tbaa !10
  %23 = load ptr, ptr %2, align 8, !tbaa !8
  %24 = getelementptr inbounds nuw %struct.H5C_cache_entry_t, ptr %23, i32 0, i32 18
  %25 = load i32, ptr %24, align 8, !tbaa !107
  %26 = icmp ult i32 %22, %25
  br i1 %26, label %27, label %94

27:                                               ; preds = %21
  %28 = load ptr, ptr %2, align 8, !tbaa !8
  %29 = getelementptr inbounds nuw %struct.H5C_cache_entry_t, ptr %28, i32 0, i32 17
  %30 = load ptr, ptr %29, align 8, !tbaa !123
  %31 = load i32, ptr %3, align 4, !tbaa !10
  %32 = zext i32 %31 to i64
  %33 = getelementptr inbounds nuw ptr, ptr %30, i64 %32
  %34 = load ptr, ptr %33, align 8, !tbaa !8
  %35 = getelementptr inbounds nuw %struct.H5C_cache_entry_t, ptr %34, i32 0, i32 22
  %36 = load i32, ptr %35, align 8, !tbaa !137
  %37 = add i32 %36, 1
  store i32 %37, ptr %35, align 8, !tbaa !137
  %38 = load ptr, ptr %2, align 8, !tbaa !8
  %39 = getelementptr inbounds nuw %struct.H5C_cache_entry_t, ptr %38, i32 0, i32 17
  %40 = load ptr, ptr %39, align 8, !tbaa !123
  %41 = load i32, ptr %3, align 4, !tbaa !10
  %42 = zext i32 %41 to i64
  %43 = getelementptr inbounds nuw ptr, ptr %40, i64 %42
  %44 = load ptr, ptr %43, align 8, !tbaa !8
  %45 = getelementptr inbounds nuw %struct.H5C_cache_entry_t, ptr %44, i32 0, i32 5
  %46 = load ptr, ptr %45, align 8, !tbaa !68
  %47 = getelementptr inbounds nuw %struct.H5C_class_t, ptr %46, i32 0, i32 11
  %48 = load ptr, ptr %47, align 8, !tbaa !77
  %49 = icmp ne ptr %48, null
  br i1 %49, label %50, label %90

50:                                               ; preds = %27
  %51 = load ptr, ptr %2, align 8, !tbaa !8
  %52 = getelementptr inbounds nuw %struct.H5C_cache_entry_t, ptr %51, i32 0, i32 17
  %53 = load ptr, ptr %52, align 8, !tbaa !123
  %54 = load i32, ptr %3, align 4, !tbaa !10
  %55 = zext i32 %54 to i64
  %56 = getelementptr inbounds nuw ptr, ptr %53, i64 %55
  %57 = load ptr, ptr %56, align 8, !tbaa !8
  %58 = getelementptr inbounds nuw %struct.H5C_cache_entry_t, ptr %57, i32 0, i32 5
  %59 = load ptr, ptr %58, align 8, !tbaa !68
  %60 = getelementptr inbounds nuw %struct.H5C_class_t, ptr %59, i32 0, i32 11
  %61 = load ptr, ptr %60, align 8, !tbaa !77
  %62 = load ptr, ptr %2, align 8, !tbaa !8
  %63 = getelementptr inbounds nuw %struct.H5C_cache_entry_t, ptr %62, i32 0, i32 17
  %64 = load ptr, ptr %63, align 8, !tbaa !123
  %65 = load i32, ptr %3, align 4, !tbaa !10
  %66 = zext i32 %65 to i64
  %67 = getelementptr inbounds nuw ptr, ptr %64, i64 %66
  %68 = load ptr, ptr %67, align 8, !tbaa !8
  %69 = call i32 %61(i32 noundef 8, ptr noundef %68)
  %70 = icmp slt i32 %69, 0
  br i1 %70, label %71, label %90

71:                                               ; preds = %50
  br label %72

72:                                               ; preds = %71
  br label %73

73:                                               ; preds = %72
  br label %74

74:                                               ; preds = %73
  %75 = load i64, ptr @H5E_CACHE_g, align 8, !tbaa !14
  %76 = load i64, ptr @H5E_CANTNOTIFY_g, align 8, !tbaa !14
  %77 = call i32 (ptr, ptr, i32, i64, i64, ptr, ...) @H5E_printf_stack(ptr noundef @.str, ptr noundef @__func__.H5C__mark_flush_dep_unserialized, i32 noundef 1480, i64 noundef %75, i64 noundef %76, ptr noundef @.str.64)
  br label %78

78:                                               ; preds = %74
  br label %79

79:                                               ; preds = %78
  store i8 1, ptr %5, align 1, !tbaa !12
  %80 = load i8, ptr %5, align 1, !tbaa !12, !range !16, !noundef !17
  %81 = trunc i8 %80 to i1
  %82 = zext i1 %81 to i8
  store i8 %82, ptr %5, align 1, !tbaa !12
  br label %83

83:                                               ; preds = %79
  br label %84

84:                                               ; preds = %83
  br label %85

85:                                               ; preds = %84
  store i32 -1, ptr %4, align 4, !tbaa !10
  br label %95

86:                                               ; No predecessors!
  br label %87

87:                                               ; preds = %86
  br label %88

88:                                               ; preds = %87
  br label %89

89:                                               ; preds = %88
  br label %90

90:                                               ; preds = %89, %50, %27
  br label %91

91:                                               ; preds = %90
  %92 = load i32, ptr %3, align 4, !tbaa !10
  %93 = add i32 %92, 1
  store i32 %93, ptr %3, align 4, !tbaa !10
  br label %21, !llvm.loop !161

94:                                               ; preds = %21
  br label %95

95:                                               ; preds = %94, %85
  br label %96

96:                                               ; preds = %95, %12
  %97 = load i32, ptr %4, align 4, !tbaa !10
  call void @llvm.lifetime.end.p0(i64 1, ptr %5) #7
  call void @llvm.lifetime.end.p0(i64 4, ptr %4) #7
  call void @llvm.lifetime.end.p0(i64 4, ptr %3) #7
  ret i32 %97
}

; Function Attrs: nounwind uwtable
define i32 @H5C_mark_entry_unserialized(ptr noundef %0) #0 {
  %2 = alloca ptr, align 8
  %3 = alloca ptr, align 8
  %4 = alloca i32, align 4
  %5 = alloca i8, align 1
  store ptr %0, ptr %2, align 8, !tbaa !126
  call void @llvm.lifetime.start.p0(i64 8, ptr %3) #7
  %6 = load ptr, ptr %2, align 8, !tbaa !126
  store ptr %6, ptr %3, align 8, !tbaa !8
  call void @llvm.lifetime.start.p0(i64 4, ptr %4) #7
  store i32 0, ptr %4, align 4, !tbaa !10
  call void @llvm.lifetime.start.p0(i64 1, ptr %5) #7
  store i8 0, ptr %5, align 1, !tbaa !12
  %7 = load i8, ptr @H5C_init_g, align 1, !tbaa !12, !range !16, !noundef !17
  %8 = trunc i8 %7 to i1
  br i1 %8, label %13, label %9

9:                                                ; preds = %1
  %10 = load i8, ptr @H5_libterm_g, align 1, !tbaa !12, !range !16, !noundef !17
  %11 = trunc i8 %10 to i1
  %12 = xor i1 %11, true
  br label %13

13:                                               ; preds = %9, %1
  %14 = phi i1 [ false, %1 ], [ %12, %9 ]
  %15 = xor i1 %14, true
  %16 = xor i1 %15, true
  %17 = zext i1 %16 to i32
  %18 = sext i32 %17 to i64
  %19 = call i64 @llvm.expect.i64(i64 %18, i64 0)
  %20 = icmp ne i64 %19, 0
  br i1 %20, label %21, label %22

21:                                               ; preds = %13
  store i8 1, ptr @H5C_init_g, align 1, !tbaa !12
  br label %22

22:                                               ; preds = %21, %13
  %23 = load i8, ptr @H5C_init_g, align 1, !tbaa !12, !range !16, !noundef !17
  %24 = trunc i8 %23 to i1
  br i1 %24, label %29, label %25

25:                                               ; preds = %22
  %26 = load i8, ptr @H5_libterm_g, align 1, !tbaa !12, !range !16, !noundef !17
  %27 = trunc i8 %26 to i1
  %28 = xor i1 %27, true
  br label %29

29:                                               ; preds = %25, %22
  %30 = phi i1 [ true, %22 ], [ %28, %25 ]
  %31 = xor i1 %30, true
  %32 = xor i1 %31, true
  %33 = zext i1 %32 to i32
  %34 = sext i32 %33 to i64
  %35 = call i64 @llvm.expect.i64(i64 %34, i64 1)
  %36 = icmp ne i64 %35, 0
  br i1 %36, label %37, label %106

37:                                               ; preds = %29
  %38 = load ptr, ptr %3, align 8, !tbaa !8
  %39 = getelementptr inbounds nuw %struct.H5C_cache_entry_t, ptr %38, i32 0, i32 8
  %40 = load i8, ptr %39, align 2, !tbaa !62, !range !16, !noundef !17
  %41 = trunc i8 %40 to i1
  br i1 %41, label %47, label %42

42:                                               ; preds = %37
  %43 = load ptr, ptr %3, align 8, !tbaa !8
  %44 = getelementptr inbounds nuw %struct.H5C_cache_entry_t, ptr %43, i32 0, i32 11
  %45 = load i8, ptr %44, align 8, !tbaa !105, !range !16, !noundef !17
  %46 = trunc i8 %45 to i1
  br i1 %46, label %47, label %85

47:                                               ; preds = %42, %37
  %48 = load ptr, ptr %3, align 8, !tbaa !8
  %49 = getelementptr inbounds nuw %struct.H5C_cache_entry_t, ptr %48, i32 0, i32 4
  %50 = load i8, ptr %49, align 8, !tbaa !66, !range !16, !noundef !17
  %51 = trunc i8 %50 to i1
  br i1 %51, label %52, label %84

52:                                               ; preds = %47
  %53 = load ptr, ptr %3, align 8, !tbaa !8
  %54 = getelementptr inbounds nuw %struct.H5C_cache_entry_t, ptr %53, i32 0, i32 4
  store i8 0, ptr %54, align 8, !tbaa !66
  %55 = load ptr, ptr %3, align 8, !tbaa !8
  %56 = getelementptr inbounds nuw %struct.H5C_cache_entry_t, ptr %55, i32 0, i32 18
  %57 = load i32, ptr %56, align 8, !tbaa !107
  %58 = icmp ugt i32 %57, 0
  br i1 %58, label %59, label %83

59:                                               ; preds = %52
  %60 = load ptr, ptr %3, align 8, !tbaa !8
  %61 = call i32 @H5C__mark_flush_dep_unserialized(ptr noundef %60)
  %62 = icmp slt i32 %61, 0
  br i1 %62, label %63, label %82

63:                                               ; preds = %59
  br label %64

64:                                               ; preds = %63
  br label %65

65:                                               ; preds = %64
  br label %66

66:                                               ; preds = %65
  %67 = load i64, ptr @H5E_CACHE_g, align 8, !tbaa !14
  %68 = load i64, ptr @H5E_CANTSET_g, align 8, !tbaa !14
  %69 = call i32 (ptr, ptr, i32, i64, i64, ptr, ...) @H5E_printf_stack(ptr noundef @.str, ptr noundef @__func__.H5C_mark_entry_unserialized, i32 noundef 2549, i64 noundef %67, i64 noundef %68, ptr noundef @.str.26)
  br label %70

70:                                               ; preds = %66
  br label %71

71:                                               ; preds = %70
  store i8 1, ptr %5, align 1, !tbaa !12
  %72 = load i8, ptr %5, align 1, !tbaa !12, !range !16, !noundef !17
  %73 = trunc i8 %72 to i1
  %74 = zext i1 %73 to i8
  store i8 %74, ptr %5, align 1, !tbaa !12
  br label %75

75:                                               ; preds = %71
  br label %76

76:                                               ; preds = %75
  br label %77

77:                                               ; preds = %76
  store i32 -1, ptr %4, align 4, !tbaa !10
  br label %105

78:                                               ; No predecessors!
  br label %79

79:                                               ; preds = %78
  br label %80

80:                                               ; preds = %79
  br label %81

81:                                               ; preds = %80
  br label %82

82:                                               ; preds = %81, %59
  br label %83

83:                                               ; preds = %82, %52
  br label %84

84:                                               ; preds = %83, %47
  br label %104

85:                                               ; preds = %42
  br label %86

86:                                               ; preds = %85
  br label %87

87:                                               ; preds = %86
  br label %88

88:                                               ; preds = %87
  %89 = load i64, ptr @H5E_CACHE_g, align 8, !tbaa !14
  %90 = load i64, ptr @H5E_CANTMARKUNSERIALIZED_g, align 8, !tbaa !14
  %91 = call i32 (ptr, ptr, i32, i64, i64, ptr, ...) @H5E_printf_stack(ptr noundef @.str, ptr noundef @__func__.H5C_mark_entry_unserialized, i32 noundef 2554, i64 noundef %89, i64 noundef %90, ptr noundef @.str.33)
  br label %92

92:                                               ; preds = %88
  br label %93

93:                                               ; preds = %92
  store i8 1, ptr %5, align 1, !tbaa !12
  %94 = load i8, ptr %5, align 1, !tbaa !12, !range !16, !noundef !17
  %95 = trunc i8 %94 to i1
  %96 = zext i1 %95 to i8
  store i8 %96, ptr %5, align 1, !tbaa !12
  br label %97

97:                                               ; preds = %93
  br label %98

98:                                               ; preds = %97
  br label %99

99:                                               ; preds = %98
  store i32 -1, ptr %4, align 4, !tbaa !10
  br label %105

100:                                              ; No predecessors!
  br label %101

101:                                              ; preds = %100
  br label %102

102:                                              ; preds = %101
  br label %103

103:                                              ; preds = %102
  br label %104

104:                                              ; preds = %103, %84
  br label %105

105:                                              ; preds = %104, %99, %77
  br label %106

106:                                              ; preds = %105, %29
  %107 = load i32, ptr %4, align 4, !tbaa !10
  call void @llvm.lifetime.end.p0(i64 1, ptr %5) #7
  call void @llvm.lifetime.end.p0(i64 4, ptr %4) #7
  call void @llvm.lifetime.end.p0(i64 8, ptr %3) #7
  ret i32 %107
}