; Function Attrs: nounwind uwtable
define range(i32 -1, 1) i32 @H5C_mark_entry_unserialized(ptr noundef captures(none) %0) local_unnamed_addr #0 {
  %2 = load i8, ptr @H5C_init_g, align 1, !tbaa !3, !range !7, !noundef !8
  %3 = trunc nuw i8 %2 to i1
  %4 = load i8, ptr @H5_libterm_g, align 1, !range !7
  %5 = trunc nuw i8 %4 to i1
  %6 = select i1 %3, i1 true, i1 %5
  br i1 %6, label %7, label %.thread, !prof !9

.thread:                                          ; preds = %1
  store i8 1, ptr @H5C_init_g, align 1, !tbaa !3
  br label %10

7:                                                ; preds = %1
  %8 = xor i1 %5, true
  %9 = select i1 %3, i1 true, i1 %8
  br i1 %9, label %10, label %H5C__mark_flush_dep_unserialized.exit, !prof !127

10:                                               ; preds = %.thread, %7
  %11 = getelementptr inbounds nuw i8, ptr %0, i64 50
  %12 = load i8, ptr %11, align 2, !tbaa !58, !range !7, !noundef !8
  %13 = trunc nuw i8 %12 to i1
  br i1 %13, label %18, label %14

14:                                               ; preds = %10
  %15 = getelementptr inbounds nuw i8, ptr %0, i64 56
  %16 = load i8, ptr %15, align 8, !tbaa !102, !range !7, !noundef !8
  %17 = trunc nuw i8 %16 to i1
  br i1 %17, label %18, label %52

18:                                               ; preds = %14, %10
  %19 = getelementptr inbounds nuw i8, ptr %0, i64 32
  %20 = load i8, ptr %19, align 8, !tbaa !63, !range !7, !noundef !8
  %21 = trunc nuw i8 %20 to i1
  br i1 %21, label %22, label %H5C__mark_flush_dep_unserialized.exit

22:                                               ; preds = %18
  store i8 0, ptr %19, align 8, !tbaa !63
  %23 = getelementptr inbounds nuw i8, ptr %0, i64 80
  %24 = load i32, ptr %23, align 8, !tbaa !105
  %.not = icmp eq i32 %24, 0
  br i1 %.not, label %H5C__mark_flush_dep_unserialized.exit, label %.lr.ph.i

.lr.ph.i:                                         ; preds = %22
  %25 = getelementptr inbounds nuw i8, ptr %0, i64 72
  br label %26

26:                                               ; preds = %41, %.lr.ph.i
  %27 = phi i32 [ %24, %.lr.ph.i ], [ %42, %41 ]
  %indvars.iv.i = phi i64 [ 0, %.lr.ph.i ], [ %indvars.iv.next.i, %41 ]
  %28 = load ptr, ptr %25, align 8, !tbaa !107
  %29 = getelementptr inbounds nuw ptr, ptr %28, i64 %indvars.iv.i
  %30 = load ptr, ptr %29, align 8, !tbaa !77
  %31 = getelementptr inbounds nuw i8, ptr %30, i64 96
  %32 = load i32, ptr %31, align 8, !tbaa !125
  %33 = add i32 %32, 1
  store i32 %33, ptr %31, align 8, !tbaa !125
  %34 = getelementptr inbounds nuw i8, ptr %30, i64 40
  %35 = load ptr, ptr %34, align 8, !tbaa !65
  %36 = getelementptr inbounds nuw i8, ptr %35, i64 80
  %37 = load ptr, ptr %36, align 8, !tbaa !74
  %.not.i = icmp eq ptr %37, null
  br i1 %.not.i, label %41, label %38

38:                                               ; preds = %26
  %39 = tail call i32 %37(i32 noundef 8, ptr noundef nonnull %30) #9
  %40 = icmp slt i32 %39, 0
  br i1 %40, label %45, label %._crit_edge.i

._crit_edge.i:                                    ; preds = %38
  %.pre.i = load i32, ptr %23, align 8, !tbaa !105
  br label %41

41:                                               ; preds = %._crit_edge.i, %26
  %42 = phi i32 [ %.pre.i, %._crit_edge.i ], [ %27, %26 ]
  %indvars.iv.next.i = add nuw nsw i64 %indvars.iv.i, 1
  %43 = zext i32 %42 to i64
  %44 = icmp samesign ult i64 %indvars.iv.next.i, %43
  br i1 %44, label %26, label %H5C__mark_flush_dep_unserialized.exit, !llvm.loop !148

45:                                               ; preds = %38
  %46 = load i64, ptr @H5E_CACHE_g, align 8, !tbaa !59
  %47 = load i64, ptr @H5E_CANTNOTIFY_g, align 8, !tbaa !59
  %48 = tail call i32 (ptr, ptr, i32, i64, i64, ptr, ...) @H5E_printf_stack(ptr noundef nonnull @.str, ptr noundef nonnull @__func__.H5C__mark_flush_dep_unserialized, i32 noundef 1480, i64 noundef %46, i64 noundef %47, ptr noundef nonnull @.str.64) #9
  %49 = load i64, ptr @H5E_CACHE_g, align 8, !tbaa !59
  %50 = load i64, ptr @H5E_CANTSET_g, align 8, !tbaa !59
  %51 = tail call i32 (ptr, ptr, i32, i64, i64, ptr, ...) @H5E_printf_stack(ptr noundef nonnull @.str, ptr noundef nonnull @__func__.H5C_mark_entry_unserialized, i32 noundef 2549, i64 noundef %49, i64 noundef %50, ptr noundef nonnull @.str.26) #9
  br label %H5C__mark_flush_dep_unserialized.exit

52:                                               ; preds = %14
  %53 = load i64, ptr @H5E_CACHE_g, align 8, !tbaa !59
  %54 = load i64, ptr @H5E_CANTMARKUNSERIALIZED_g, align 8, !tbaa !59
  %55 = tail call i32 (ptr, ptr, i32, i64, i64, ptr, ...) @H5E_printf_stack(ptr noundef nonnull @.str, ptr noundef nonnull @__func__.H5C_mark_entry_unserialized, i32 noundef 2554, i64 noundef %53, i64 noundef %54, ptr noundef nonnull @.str.33) #9
  br label %H5C__mark_flush_dep_unserialized.exit

H5C__mark_flush_dep_unserialized.exit:            ; preds = %41, %45, %52, %18, %22, %7
  %.0 = phi i32 [ -1, %45 ], [ 0, %22 ], [ 0, %18 ], [ -1, %52 ], [ 0, %7 ], [ 0, %41 ]
  ret i32 %.0
}